target datalayout = "e-m:e-p270:32:32-p271:32:32-p272:64:64-i64:64-i128:128-f80:128-n8:16:32:64-S128"
target triple = "x86_64-pc-linux-gnu"

%struct.pmi2_tree_info = type { ptr, ptr, i32, i32, i32, i32, i16, ptr, ptr }

@tree_info = external global %struct.pmi2_tree_info, align 8

; Function Attrs: nounwind uwtable
define dso_local i32 @tree_msg_to_srun(i32 noundef %0, ptr noundef %1) #0 {
  %3 = alloca i32, align 4
  %4 = alloca i32, align 4
  %5 = alloca ptr, align 8
  %6 = alloca i32, align 4
  %7 = alloca i32, align 4
  %8 = alloca i32, align 4
  store i32 %0, ptr %4, align 4
  store ptr %1, ptr %5, align 8
  call void @llvm.lifetime.start.p0(i64 4, ptr %6) #6
  call void @llvm.lifetime.start.p0(i64 4, ptr %7) #6
  %9 = load ptr, ptr getelementptr inbounds nuw (%struct.pmi2_tree_info, ptr @tree_info, i32 0, i32 7), align 8
  %10 = call i32 @slurm_open_stream(ptr noundef %9, i1 noundef zeroext true)
  store i32 %10, ptr %6, align 4
  %11 = load i32, ptr %6, align 4
  %12 = icmp slt i32 %11, 0
  br i1 %12, label %13, label %14

13:                                               ; preds = %2
  store i32 -1, ptr %3, align 4
  store i32 1, ptr %8, align 4
  br label %30

14:                                               ; preds = %2
  %15 = load i32, ptr %6, align 4
  %16 = load ptr, ptr %5, align 8
  %17 = load i32, ptr %4, align 4
  %18 = zext i32 %17 to i64
  %19 = call i64 @slurm_msg_sendto(i32 noundef %15, ptr noundef %16, i64 noundef %18)
  %20 = trunc i64 %19 to i32
  store i32 %20, ptr %7, align 4
  %21 = load i32, ptr %7, align 4
  %22 = load i32, ptr %4, align 4
  %23 = icmp eq i32 %21, %22
  br i1 %23, label %24, label %25

24:                                               ; preds = %14
  store i32 0, ptr %7, align 4
  br label %26

25:                                               ; preds = %14
  store i32 -1, ptr %7, align 4
  br label %26

26:                                               ; preds = %25, %24
  %27 = load i32, ptr %6, align 4
  %28 = call i32 @close(i32 noundef %27)
  %29 = load i32, ptr %7, align 4
  store i32 %29, ptr %3, align 4
  store i32 1, ptr %8, align 4
  br label %30

30:                                               ; preds = %26, %13
  call void @llvm.lifetime.end.p0(i64 4, ptr %7) #6
  call void @llvm.lifetime.end.p0(i64 4, ptr %6) #6
  %31 = load i32, ptr %3, align 4
  ret i32 %31
}