; Function Attrs: nounwind uwtable
define dso_local range(i32 -1, 1) i32 @tree_msg_to_srun(i32 noundef %0, ptr noundef %1) local_unnamed_addr #0 {
  %3 = load ptr, ptr getelementptr inbounds nuw (i8, ptr @tree_info, i64 40), align 8
  %4 = tail call i32 @slurm_open_stream(ptr noundef %3, i1 noundef zeroext true) #7
  %5 = icmp slt i32 %4, 0
  br i1 %5, label %12, label %6

6:                                                ; preds = %2
  %7 = zext i32 %0 to i64
  %8 = tail call i64 @slurm_msg_sendto(i32 noundef %4, ptr noundef %1, i64 noundef %7) #7
  %9 = trunc i64 %8 to i32
  %10 = icmp ne i32 %0, %9
  %. = sext i1 %10 to i32
  %11 = tail call i32 @close(i32 noundef %4) #7
  br label %12

12:                                               ; preds = %2, %6
  %.08 = phi i32 [ %., %6 ], [ -1, %2 ]
  ret i32 %.08
}